; ModuleID = 'source-C-CXX/53/995.c'
source_filename = "source-C-CXX/53/995.c"
target datalayout = "e-m:e-p270:32:32-p271:32:32-p272:64:64-i64:64-f80:128-n8:16:32:64-S128"
target triple = "x86_64-pc-linux-gnu"

@.str = private unnamed_addr constant [5 x i8] c"%d%d\00", align 1
@.str.1 = private unnamed_addr constant [3 x i8] c"%d\00", align 1

; Function Attrs: nofree nounwind sspstrong uwtable
define dso_local i32 @main(i32 %0, i8** nocapture readnone %1) local_unnamed_addr #0 {
  %3 = alloca i32, align 4
  %4 = alloca i32, align 4
  %5 = bitcast i32* %3 to i8*
  call void @llvm.lifetime.start.p0i8(i64 4, i8* nonnull %5) #4
  store i32 0, i32* %3, align 4, !tbaa !5
  %6 = bitcast i32* %4 to i8*
  call void @llvm.lifetime.start.p0i8(i64 4, i8* nonnull %6) #4
  store i32 0, i32* %4, align 4, !tbaa !5
  %7 = call i32 (i8*, ...) @__isoc99_scanf(i8* getelementptr inbounds ([5 x i8], [5 x i8]* @.str, i64 0, i64 0), i32* nonnull %3, i32* nonnull %4)
  %8 = load i32, i32* %3, align 4, !tbaa !5
  %9 = load i32, i32* %4, align 4, !tbaa !5
  %10 = add nsw i32 %8, -1
  %11 = icmp sgt i32 %8, 0
  br i1 %11, label %12, label %29

12:                                               ; preds = %2, %26
  %13 = phi i32 [ %28, %26 ], [ 1, %2 ]
  %14 = mul nsw i32 %13, %10
  br label %15

15:                                               ; preds = %21, %12
  %16 = phi i32 [ 0, %12 ], [ %24, %21 ]
  %17 = phi i32 [ %14, %12 ], [ %23, %21 ]
  %18 = srem i32 %17, %10
  %19 = sdiv i32 %17, %10
  %20 = icmp eq i32 %18, 0
  br i1 %20, label %21, label %26

21:                                               ; preds = %15
  %22 = mul nsw i32 %19, %8
  %23 = add nsw i32 %22, %9
  %24 = add nuw nsw i32 %16, 1
  %25 = icmp eq i32 %24, %8
  br i1 %25, label %32, label %15, !llvm.loop !9

26:                                               ; preds = %15
  %27 = icmp eq i32 %16, %8
  %28 = add nuw nsw i32 %13, 1
  br i1 %27, label %32, label %12

29:                                               ; preds = %2
  %30 = icmp eq i32 %8, 0
  br i1 %30, label %32, label %31

31:                                               ; preds = %29, %31
  br label %31

32:                                               ; preds = %26, %21, %29
  %33 = phi i32 [ -1, %29 ], [ %23, %21 ], [ %17, %26 ]
  %34 = call i32 (i8*, ...) @printf(i8* nonnull dereferenceable(1) getelementptr inbounds ([3 x i8], [3 x i8]* @.str.1, i64 0, i64 0), i32 %33)
  call void @llvm.lifetime.end.p0i8(i64 4, i8* nonnull %6) #4
  call void @llvm.lifetime.end.p0i8(i64 4, i8* nonnull %5) #4
  ret i32 0
}

; Function Attrs: argmemonly mustprogress nofree nosync nounwind willreturn
declare void @llvm.lifetime.start.p0i8(i64 immarg, i8* nocapture) #1

; Function Attrs: nofree nounwind
declare noundef i32 @__isoc99_scanf(i8* nocapture noundef readonly, ...) local_unnamed_addr #2

; Function Attrs: nofree nounwind
declare noundef i32 @printf(i8* nocapture noundef readonly, ...) local_unnamed_addr #2

; Function Attrs: nofree norecurse nosync nounwind readnone sspstrong uwtable
define dso_local i32 @fenpei(i32 %0, i32 %1) local_unnamed_addr #3 {
  %3 = add nsw i32 %0, -1
  %4 = icmp sgt i32 %0, 0
  br i1 %4, label %5, label %24

5:                                                ; preds = %2, %19
  %6 = phi i32 [ %23, %19 ], [ 1, %2 ]
  %7 = mul nsw i32 %6, %3
  br label %8

8:                                                ; preds = %14, %5
  %9 = phi i32 [ 0, %5 ], [ %17, %14 ]
  %10 = phi i32 [ %7, %5 ], [ %16, %14 ]
  %11 = srem i32 %10, %3
  %12 = sdiv i32 %10, %3
  %13 = icmp eq i32 %11, 0
  br i1 %13, label %14, label %19

14:                                               ; preds = %8
  %15 = mul nsw i32 %12, %0
  %16 = add nsw i32 %15, %1
  %17 = add nuw nsw i32 %9, 1
  %18 = icmp slt i32 %17, %0
  br i1 %18, label %8, label %19, !llvm.loop !9

19:                                               ; preds = %8, %14
  %20 = phi i32 [ %16, %14 ], [ %10, %8 ]
  %21 = phi i32 [ %17, %14 ], [ %9, %8 ]
  %22 = icmp eq i32 %21, %0
  %23 = add nuw nsw i32 %6, 1
  br i1 %22, label %27, label %5

24:                                               ; preds = %2
  %25 = icmp eq i32 %0, 0
  br i1 %25, label %27, label %26

26:                                               ; preds = %24, %26
  br label %26

27:                                               ; preds = %19, %24
  %28 = phi i32 [ -1, %24 ], [ %20, %19 ]
  ret i32 %28
}

; Function Attrs: argmemonly mustprogress nofree nosync nounwind willreturn
declare void @llvm.lifetime.end.p0i8(i64 immarg, i8* nocapture) #1


!llvm.module.flags = !{!0, !1, !2, !3}
!llvm.ident = !{!4}

!0 = !{i32 1, !"wchar_size", i32 4}
!1 = !{i32 7, !"PIC Level", i32 2}
!2 = !{i32 7, !"PIE Level", i32 2}
!3 = !{i32 7, !"uwtable", i32 1}
!4 = !{!"clang version 13.0.0"}
!5 = !{!6, !6, i64 0}
!6 = !{!"int", !7, i64 0}
!7 = !{!"omnipotent char", !8, i64 0}
!8 = !{!"Simple C/C++ TBAA"}
!9 = distinct !{!9, !10}
!10 = !{!"llvm.loop.mustprogress"}
